target datalayout = "e-m:e-p270:32:32-p271:32:32-p272:64:64-i64:64-i128:128-f80:128-n8:16:32:64-S128"
target triple = "x86_64-pc-linux-gnu"

%struct.If_DsdMan_t_ = type { ptr, i32, i32, i32, i32, ptr, ptr, %struct.Vec_Ptr_t_, %struct.Vec_Int_t_, %struct.Vec_Int_t_, ptr, ptr, ptr, [16 x ptr], [16 x ptr], [16 x ptr], [16 x ptr], i32, i32, ptr, ptr, ptr, ptr, ptr, i32, i32, i32, i32, i64, i64, i64, i64, i64 }
%struct.Vec_Ptr_t_ = type { i32, i32, ptr }
%struct.Vec_Int_t_ = type { i32, i32, ptr }
%struct.If_DsdObj_t_ = type { i32, i32, [0 x i32] }

; Function Attrs: inlinehint nounwind uwtable
define internal ptr @Vec_PtrEntry(ptr noundef %0, i32 noundef %1) #1 {
  %3 = alloca ptr, align 8
  %4 = alloca i32, align 4
  store ptr %0, ptr %3, align 8, !tbaa !22
  store i32 %1, ptr %4, align 4, !tbaa !27
  %5 = load ptr, ptr %3, align 8, !tbaa !22
  %6 = getelementptr inbounds nuw %struct.Vec_Ptr_t_, ptr %5, i32 0, i32 2
  %7 = load ptr, ptr %6, align 8, !tbaa !46
  %8 = load i32, ptr %4, align 4, !tbaa !27
  %9 = sext i32 %8 to i64
  %10 = getelementptr inbounds ptr, ptr %7, i64 %9
  %11 = load ptr, ptr %10, align 8, !tbaa !44
  ret ptr %11
}

; Function Attrs: inlinehint nounwind uwtable
define internal i32 @Vec_PtrSize(ptr noundef %0) #1 {
  %2 = alloca ptr, align 8
  store ptr %0, ptr %2, align 8, !tbaa !22
  %3 = load ptr, ptr %2, align 8, !tbaa !22
  %4 = getelementptr inbounds nuw %struct.Vec_Ptr_t_, ptr %3, i32 0, i32 1
  %5 = load i32, ptr %4, align 4, !tbaa !24
  ret i32 %5
}

; Function Attrs: nounwind uwtable
define void @If_DsdManCleanOccur(ptr noundef %0, i32 noundef %1) #0 {
  %3 = alloca ptr, align 8
  %4 = alloca i32, align 4
  %5 = alloca ptr, align 8
  %6 = alloca i32, align 4
  store ptr %0, ptr %3, align 8, !tbaa !3
  store i32 %1, ptr %4, align 4, !tbaa !27
  call void @llvm.lifetime.start.p0(i64 8, ptr %5) #15
  call void @llvm.lifetime.start.p0(i64 4, ptr %6) #15
  store i32 0, ptr %6, align 4, !tbaa !27
  br label %7

7:                                                ; preds = %26, %2
  %8 = load i32, ptr %6, align 4, !tbaa !27
  %9 = load ptr, ptr %3, align 8, !tbaa !3
  %10 = getelementptr inbounds nuw %struct.If_DsdMan_t_, ptr %9, i32 0, i32 7
  %11 = call i32 @Vec_PtrSize(ptr noundef %10)
  %12 = icmp slt i32 %8, %11
  br i1 %12, label %13, label %18

13:                                               ; preds = %7
  %14 = load ptr, ptr %3, align 8, !tbaa !3
  %15 = getelementptr inbounds nuw %struct.If_DsdMan_t_, ptr %14, i32 0, i32 7
  %16 = load i32, ptr %6, align 4, !tbaa !27
  %17 = call ptr @Vec_PtrEntry(ptr noundef %15, i32 noundef %16)
  store ptr %17, ptr %5, align 8, !tbaa !40
  br label %18

18:                                               ; preds = %13, %7
  %19 = phi i1 [ false, %7 ], [ true, %13 ]
  br i1 %19, label %20, label %29

20:                                               ; preds = %18
  %21 = load ptr, ptr %5, align 8, !tbaa !40
  %22 = getelementptr inbounds nuw %struct.If_DsdObj_t_, ptr %21, i32 0, i32 1
  %23 = load i32, ptr %22, align 4
  %24 = and i32 %23, -134217217
  %25 = or i32 %24, 0
  store i32 %25, ptr %22, align 4
  br label %26

26:                                               ; preds = %20
  %27 = load i32, ptr %6, align 4, !tbaa !27
  %28 = add nsw i32 %27, 1
  store i32 %28, ptr %6, align 4, !tbaa !27
  br label %7, !llvm.loop !185

29:                                               ; preds = %18
  call void @llvm.lifetime.end.p0(i64 4, ptr %6) #15
  call void @llvm.lifetime.end.p0(i64 8, ptr %5) #15
  ret void
}