; Function Attrs: nofree norecurse nosync nounwind memory(readwrite, inaccessiblemem: none) uwtable
define void @If_DsdManCleanOccur(ptr noundef readonly captures(none) %0, i32 noundef %1) local_unnamed_addr #22 {
  %3 = getelementptr i8, ptr %0, i64 44
  %.val6 = load i32, ptr %3, align 4, !tbaa !20
  %4 = icmp sgt i32 %.val6, 0
  br i1 %4, label %.lr.ph, label %.critedge

.lr.ph:                                           ; preds = %2
  %5 = getelementptr i8, ptr %0, i64 48
  br label %6

6:                                                ; preds = %.lr.ph, %6
  %indvars.iv = phi i64 [ 0, %.lr.ph ], [ %indvars.iv.next, %6 ]
  %.val5 = load ptr, ptr %5, align 8, !tbaa !23
  %7 = getelementptr inbounds nuw ptr, ptr %.val5, i64 %indvars.iv
  %8 = load ptr, ptr %7, align 8, !tbaa !24
  %9 = getelementptr inbounds nuw i8, ptr %8, i64 4
  %10 = load i32, ptr %9, align 4
  %11 = and i32 %10, -134217217
  store i32 %11, ptr %9, align 4
  %indvars.iv.next = add nuw nsw i64 %indvars.iv, 1
  %.val = load i32, ptr %3, align 4, !tbaa !20
  %12 = sext i32 %.val to i64
  %13 = icmp slt i64 %indvars.iv.next, %12
  br i1 %13, label %6, label %.critedge, !llvm.loop !187

.critedge:                                        ; preds = %6, %2
  ret void
}